target datalayout = "e-m:e-p270:32:32-p271:32:32-p272:64:64-i64:64-i128:128-f80:128-n8:16:32:64-S128"
target triple = "x86_64-pc-linux-gnu"

%struct.CompactAttribute = type { i32, i16, i8, i8, i8, i8, i8, i8, i8 }
%struct.TupleDescData = type { i32, i32, i32, i32, ptr, [0 x %struct.CompactAttribute] }
%struct.HeapTupleData = type { i32, %struct.ItemPointerData, i32, ptr }
%struct.ItemPointerData = type { %struct.BlockIdData, i16 }
%struct.BlockIdData = type { i16, i16 }
%struct.HeapTupleHeaderData = type { %union.anon, %struct.ItemPointerData, i16, i16, i8, [0 x i8] }
%union.anon = type { %struct.HeapTupleFields }
%struct.HeapTupleFields = type { i32, i32, %union.anon.1 }
%union.anon.1 = type { i32 }

@.str.1 = private unnamed_addr constant [12 x i8] c"heaptuple.c\00", align 1
@.str.3 = private unnamed_addr constant [25 x i8] c"invalid column number %d\00", align 1
@__func__.heap_modify_tuple_by_cols = private unnamed_addr constant [26 x i8] c"heap_modify_tuple_by_cols\00", align 1

; Function Attrs: nounwind uwtable
define dso_local ptr @heap_modify_tuple_by_cols(ptr noundef %0, ptr noundef %1, i32 noundef %2, ptr noundef %3, ptr noundef %4, ptr noundef %5) #0 {
  %7 = alloca ptr, align 8
  %8 = alloca ptr, align 8
  %9 = alloca i32, align 4
  %10 = alloca ptr, align 8
  %11 = alloca ptr, align 8
  %12 = alloca ptr, align 8
  %13 = alloca i32, align 4
  %14 = alloca ptr, align 8
  %15 = alloca ptr, align 8
  %16 = alloca ptr, align 8
  %17 = alloca i32, align 4
  %18 = alloca i32, align 4
  store ptr %0, ptr %7, align 8
  store ptr %1, ptr %8, align 8
  store i32 %2, ptr %9, align 4
  store ptr %3, ptr %10, align 8
  store ptr %4, ptr %11, align 8
  store ptr %5, ptr %12, align 8
  call void @llvm.lifetime.start.p0(i64 4, ptr %13) #8
  %19 = load ptr, ptr %8, align 8
  %20 = getelementptr inbounds nuw %struct.TupleDescData, ptr %19, i32 0, i32 0
  %21 = load i32, ptr %20, align 8
  store i32 %21, ptr %13, align 4
  call void @llvm.lifetime.start.p0(i64 8, ptr %14) #8
  call void @llvm.lifetime.start.p0(i64 8, ptr %15) #8
  call void @llvm.lifetime.start.p0(i64 8, ptr %16) #8
  call void @llvm.lifetime.start.p0(i64 4, ptr %17) #8
  %22 = load i32, ptr %13, align 4
  %23 = sext i32 %22 to i64
  %24 = mul i64 %23, 8
  %25 = call ptr @palloc(i64 noundef %24)
  store ptr %25, ptr %14, align 8
  %26 = load i32, ptr %13, align 4
  %27 = sext i32 %26 to i64
  %28 = mul i64 %27, 1
  %29 = call ptr @palloc(i64 noundef %28)
  store ptr %29, ptr %15, align 8
  %30 = load ptr, ptr %7, align 8
  %31 = load ptr, ptr %8, align 8
  %32 = load ptr, ptr %14, align 8
  %33 = load ptr, ptr %15, align 8
  call void @heap_deform_tuple(ptr noundef %30, ptr noundef %31, ptr noundef %32, ptr noundef %33)
  store i32 0, ptr %17, align 4
  br label %34

34:                                               ; preds = %85, %6
  %35 = load i32, ptr %17, align 4
  %36 = load i32, ptr %9, align 4
  %37 = icmp slt i32 %35, %36
  br i1 %37, label %38, label %88

38:                                               ; preds = %34
  call void @llvm.lifetime.start.p0(i64 4, ptr %18) #8
  %39 = load ptr, ptr %10, align 8
  %40 = load i32, ptr %17, align 4
  %41 = sext i32 %40 to i64
  %42 = getelementptr inbounds i32, ptr %39, i64 %41
  %43 = load i32, ptr %42, align 4
  store i32 %43, ptr %18, align 4
  %44 = load i32, ptr %18, align 4
  %45 = icmp sle i32 %44, 0
  br i1 %45, label %50, label %46

46:                                               ; preds = %38
  %47 = load i32, ptr %18, align 4
  %48 = load i32, ptr %13, align 4
  %49 = icmp sgt i32 %47, %48
  br i1 %49, label %50, label %62

50:                                               ; preds = %46, %38
  br label %51

51:                                               ; preds = %50
  br i1 true, label %52, label %54

52:                                               ; preds = %51
  %53 = call zeroext i1 @errstart_cold(i32 noundef 21, ptr noundef null) #10
  br i1 %53, label %56, label %59

54:                                               ; preds = %51
  %55 = call zeroext i1 @errstart(i32 noundef 21, ptr noundef null)
  br i1 %55, label %56, label %59

56:                                               ; preds = %54, %52
  %57 = load i32, ptr %18, align 4
  %58 = call i32 (ptr, ...) @errmsg_internal(ptr noundef @.str.3, i32 noundef %57)
  call void @errfinish(ptr noundef @.str.1, i32 noundef 1305, ptr noundef @__func__.heap_modify_tuple_by_cols)
  br label %59

59:                                               ; preds = %56, %54, %52
  unreachable

60:                                               ; No predecessors!
  br label %61

61:                                               ; preds = %60
  br label %62

62:                                               ; preds = %61, %46
  %63 = load ptr, ptr %11, align 8
  %64 = load i32, ptr %17, align 4
  %65 = sext i32 %64 to i64
  %66 = getelementptr inbounds i64, ptr %63, i64 %65
  %67 = load i64, ptr %66, align 8
  %68 = load ptr, ptr %14, align 8
  %69 = load i32, ptr %18, align 4
  %70 = sub i32 %69, 1
  %71 = sext i32 %70 to i64
  %72 = getelementptr inbounds i64, ptr %68, i64 %71
  store i64 %67, ptr %72, align 8
  %73 = load ptr, ptr %12, align 8
  %74 = load i32, ptr %17, align 4
  %75 = sext i32 %74 to i64
  %76 = getelementptr inbounds i8, ptr %73, i64 %75
  %77 = load i8, ptr %76, align 1, !range !4, !noundef !5
  %78 = trunc i8 %77 to i1
  %79 = load ptr, ptr %15, align 8
  %80 = load i32, ptr %18, align 4
  %81 = sub i32 %80, 1
  %82 = sext i32 %81 to i64
  %83 = getelementptr inbounds i8, ptr %79, i64 %82
  %84 = zext i1 %78 to i8
  store i8 %84, ptr %83, align 1
  call void @llvm.lifetime.end.p0(i64 4, ptr %18) #8
  br label %85

85:                                               ; preds = %62
  %86 = load i32, ptr %17, align 4
  %87 = add i32 %86, 1
  store i32 %87, ptr %17, align 4
  br label %34, !llvm.loop !20

88:                                               ; preds = %34
  %89 = load ptr, ptr %8, align 8
  %90 = load ptr, ptr %14, align 8
  %91 = load ptr, ptr %15, align 8
  %92 = call ptr @heap_form_tuple(ptr noundef %89, ptr noundef %90, ptr noundef %91)
  store ptr %92, ptr %16, align 8
  %93 = load ptr, ptr %14, align 8
  call void @pfree(ptr noundef %93)
  %94 = load ptr, ptr %15, align 8
  call void @pfree(ptr noundef %94)
  %95 = load ptr, ptr %16, align 8
  %96 = getelementptr inbounds nuw %struct.HeapTupleData, ptr %95, i32 0, i32 3
  %97 = load ptr, ptr %96, align 8
  %98 = getelementptr inbounds nuw %struct.HeapTupleHeaderData, ptr %97, i32 0, i32 1
  %99 = load ptr, ptr %7, align 8
  %100 = getelementptr inbounds nuw %struct.HeapTupleData, ptr %99, i32 0, i32 3
  %101 = load ptr, ptr %100, align 8
  %102 = getelementptr inbounds nuw %struct.HeapTupleHeaderData, ptr %101, i32 0, i32 1
  call void @llvm.memcpy.p0.p0.i64(ptr align 4 %98, ptr align 4 %102, i64 6, i1 false)
  %103 = load ptr, ptr %16, align 8
  %104 = getelementptr inbounds nuw %struct.HeapTupleData, ptr %103, i32 0, i32 1
  %105 = load ptr, ptr %7, align 8
  %106 = getelementptr inbounds nuw %struct.HeapTupleData, ptr %105, i32 0, i32 1
  call void @llvm.memcpy.p0.p0.i64(ptr align 4 %104, ptr align 4 %106, i64 6, i1 false)
  %107 = load ptr, ptr %7, align 8
  %108 = getelementptr inbounds nuw %struct.HeapTupleData, ptr %107, i32 0, i32 2
  %109 = load i32, ptr %108, align 4
  %110 = load ptr, ptr %16, align 8
  %111 = getelementptr inbounds nuw %struct.HeapTupleData, ptr %110, i32 0, i32 2
  store i32 %109, ptr %111, align 4
  %112 = load ptr, ptr %16, align 8
  call void @llvm.lifetime.end.p0(i64 4, ptr %17) #8
  call void @llvm.lifetime.end.p0(i64 8, ptr %16) #8
  call void @llvm.lifetime.end.p0(i64 8, ptr %15) #8
  call void @llvm.lifetime.end.p0(i64 8, ptr %14) #8
  call void @llvm.lifetime.end.p0(i64 4, ptr %13) #8
  ret ptr %112
}