; Function Attrs: nounwind uwtable
define dso_local noundef ptr @heap_modify_tuple_by_cols(ptr noundef readonly captures(none) %0, ptr noundef captures(none) %1, i32 noundef %2, ptr noundef readonly captures(none) %3, ptr noundef readonly captures(none) %4, ptr noundef readonly captures(none) %5) local_unnamed_addr #0 {
  %7 = load i32, ptr %1, align 8
  %8 = sext i32 %7 to i64
  %9 = shl nsw i64 %8, 3
  %10 = tail call ptr @palloc(i64 noundef %9) #12
  %11 = tail call ptr @palloc(i64 noundef %8) #12
  tail call void @heap_deform_tuple(ptr noundef %0, ptr noundef nonnull %1, ptr noundef %10, ptr noundef %11)
  %12 = icmp sgt i32 %2, 0
  br i1 %12, label %.lr.ph.preheader, label %._crit_edge

.lr.ph.preheader:                                 ; preds = %6
  %wide.trip.count = zext nneg i32 %2 to i64
  br label %.lr.ph

.lr.ph:                                           ; preds = %.lr.ph.preheader, %20
  %indvars.iv = phi i64 [ 0, %.lr.ph.preheader ], [ %indvars.iv.next, %20 ]
  %13 = getelementptr inbounds nuw i32, ptr %3, i64 %indvars.iv
  %14 = load i32, ptr %13, align 4
  %15 = icmp slt i32 %14, 1
  %16 = icmp sgt i32 %14, %7
  %or.cond = or i1 %15, %16
  br i1 %or.cond, label %17, label %20

17:                                               ; preds = %.lr.ph
  %18 = tail call zeroext i1 @errstart_cold(i32 noundef 21, ptr noundef null) #14
  tail call void @llvm.assume(i1 %18)
  %19 = tail call i32 (ptr, ...) @errmsg_internal(ptr noundef nonnull @.str.3, i32 noundef %14) #12
  tail call void @errfinish(ptr noundef nonnull @.str.1, i32 noundef 1305, ptr noundef nonnull @__func__.heap_modify_tuple_by_cols) #12
  unreachable

20:                                               ; preds = %.lr.ph
  %21 = getelementptr inbounds nuw i64, ptr %4, i64 %indvars.iv
  %22 = load i64, ptr %21, align 8
  %23 = add nsw i32 %14, -1
  %24 = zext nneg i32 %23 to i64
  %25 = getelementptr inbounds nuw i64, ptr %10, i64 %24
  store i64 %22, ptr %25, align 8
  %26 = getelementptr inbounds nuw i8, ptr %5, i64 %indvars.iv
  %27 = load i8, ptr %26, align 1, !range !4, !noundef !5
  %28 = getelementptr inbounds nuw i8, ptr %11, i64 %24
  store i8 %27, ptr %28, align 1
  %indvars.iv.next = add nuw nsw i64 %indvars.iv, 1
  %exitcond.not = icmp eq i64 %indvars.iv.next, %wide.trip.count
  br i1 %exitcond.not, label %._crit_edge, label %.lr.ph, !llvm.loop !20

._crit_edge:                                      ; preds = %20, %6
  %29 = tail call ptr @heap_form_tuple(ptr noundef nonnull %1, ptr noundef %10, ptr noundef %11)
  tail call void @pfree(ptr noundef %10) #12
  tail call void @pfree(ptr noundef %11) #12
  %30 = getelementptr inbounds nuw i8, ptr %29, i64 16
  %31 = load ptr, ptr %30, align 8
  %32 = getelementptr inbounds nuw i8, ptr %31, i64 12
  %33 = getelementptr inbounds nuw i8, ptr %0, i64 16
  %34 = load ptr, ptr %33, align 8
  %35 = getelementptr inbounds nuw i8, ptr %34, i64 12
  tail call void @llvm.memcpy.p0.p0.i64(ptr noundef nonnull align 4 dereferenceable(6) %32, ptr noundef nonnull align 4 dereferenceable(6) %35, i64 6, i1 false)
  %36 = getelementptr inbounds nuw i8, ptr %29, i64 4
  %37 = getelementptr inbounds nuw i8, ptr %0, i64 4
  tail call void @llvm.memcpy.p0.p0.i64(ptr noundef nonnull align 4 dereferenceable(6) %36, ptr noundef nonnull align 4 dereferenceable(6) %37, i64 6, i1 false)
  %38 = getelementptr inbounds nuw i8, ptr %0, i64 12
  %39 = load i32, ptr %38, align 4
  %40 = getelementptr inbounds nuw i8, ptr %29, i64 12
  store i32 %39, ptr %40, align 4
  ret ptr %29
}